; Function Attrs: mustprogress uwtable
define hidden noundef ptr @_ZN7datalog11udoc_plugin24mk_filter_by_negation_fnERKNS_13relation_baseES3_jPKjS5_(ptr noundef nonnull readnone align 8 captures(address) dereferenceable(129) %0, ptr noundef nonnull align 8 dereferenceable(28) %1, ptr noundef nonnull align 8 dereferenceable(28) %2, i32 noundef %3, ptr noundef %4, ptr noundef %5) unnamed_addr #3 align 2 {
  %7 = getelementptr inbounds nuw i8, ptr %1, i64 8
  %8 = load ptr, ptr %7, align 8, !tbaa !167
  %9 = icmp eq ptr %8, %0
  %10 = getelementptr inbounds nuw i8, ptr %2, i64 8
  %11 = load ptr, ptr %10, align 8
  %12 = icmp eq ptr %11, %0
  %or.cond = select i1 %9, i1 %12, i1 false
  br i1 %or.cond, label %13, label %21

13:                                               ; preds = %6
  %14 = tail call noalias noundef ptr @_ZN6memory8allocateEm(i64 noundef 104)
  %15 = tail call ptr @__dynamic_cast(ptr nonnull readonly align 8 dereferenceable(28) %1, ptr nonnull @_ZTIN7datalog13relation_baseE, ptr nonnull @_ZTIN7datalog13udoc_relationE, i64 0) #24
  %16 = icmp eq ptr %15, null
  br i1 %16, label %17, label %_ZN7datalog11udoc_plugin3getERKNS_13relation_baseE.exit

17:                                               ; preds = %13
  tail call void @__cxa_bad_cast() #25
  unreachable

_ZN7datalog11udoc_plugin3getERKNS_13relation_baseE.exit: ; preds = %13
  %18 = tail call ptr @__dynamic_cast(ptr nonnull readonly align 8 dereferenceable(28) %2, ptr nonnull @_ZTIN7datalog13relation_baseE, ptr nonnull @_ZTIN7datalog13udoc_relationE, i64 0) #24
  %19 = icmp eq ptr %18, null
  br i1 %19, label %20, label %_ZN7datalog11udoc_plugin3getERKNS_13relation_baseE.exit8

20:                                               ; preds = %_ZN7datalog11udoc_plugin3getERKNS_13relation_baseE.exit
  tail call void @__cxa_bad_cast() #25
  unreachable

_ZN7datalog11udoc_plugin3getERKNS_13relation_baseE.exit8: ; preds = %_ZN7datalog11udoc_plugin3getERKNS_13relation_baseE.exit
  tail call void @_ZN7datalog11udoc_plugin18negation_filter_fnC2ERKNS_13udoc_relationES4_jPKjS6_(ptr noundef nonnull align 8 dereferenceable(97) %14, ptr noundef nonnull align 8 dereferenceable(128) %15, ptr noundef nonnull align 8 dereferenceable(128) %18, i32 noundef %3, ptr noundef %4, ptr noundef %5)
  br label %21

21:                                               ; preds = %6, %_ZN7datalog11udoc_plugin3getERKNS_13relation_baseE.exit8
  %.0 = phi ptr [ %14, %_ZN7datalog11udoc_plugin3getERKNS_13relation_baseE.exit8 ], [ null, %6 ]
  ret ptr %.0
}